Certificate:
    Data:
        Version: 3 (0x2)
        Serial Number:
            48:b8:f7:57:38:13:74:07:12:07:d1:67:44:3f:13:7f:8d:07:85:71
        Signature Algorithm: sha256WithRSAEncryption
        Issuer: CN=localhost
        Validity
            Not Before: Jan 26 21:58:22 2026 GMT
            Not After : Jan 26 21:58:22 2027 GMT
        Subject: CN=localhost
        Subject Public Key Info:
            Public Key Algorithm: rsaEncryption
                Public-Key: (2048 bit)
                Modulus:
                    00:a5:71:b5:8f:b0:2a:e0:3a:ae:3f:76:af:1c:fa:
                    cd:ea:8d:a1:c0:7a:40:37:5f:27:84:bc:71:62:b6:
                    40:5d:f7:e1:63:90:19:e6:b6:5d:2e:09:51:76:b7:
                    0d:d7:06:ce:0e:21:ed:5a:75:46:8b:13:a7:c1:95:
                    bf:21:e4:88:54:88:4e:86:22:3f:af:b6:1b:3b:31:
                    ea:64:d8:32:6a:06:dd:bf:6a:ae:d3:ad:0c:df:63:
                    83:0e:4e:6a:4c:76:38:f7:29:85:77:e1:c2:72:75:
                    c2:28:40:39:31:93:a0:83:46:d9:f8:95:f6:ec:a9:
                    64:9f:2a:f0:fe:29:0a:30:34:10:8a:86:8d:f7:60:
                    38:e8:ec:44:40:b0:da:20:fc:f5:be:8b:b7:b0:b6:
                    16:00:17:55:4d:ef:d2:07:8b:17:7e:f1:76:4d:9e:
                    c3:1a:3a:06:2d:28:c8:43:f7:61:bb:7b:e6:a5:79:
                    09:6f:bd:ef:20:a7:f1:37:7a:dc:59:6a:84:31:45:
                    f9:6c:9f:0d:00:3a:59:41:84:bf:27:79:e0:27:92:
                    50:23:8e:86:5c:38:65:4d:58:54:09:ad:1b:f1:a4:
                    fb:ba:53:58:9b:0b:c8:cd:1e:b0:5e:c3:d9:fd:fc:
                    6b:53:93:b6:1c:51:bd:61:b5:16:65:42:34:43:1c:
                    88:47
                Exponent: 65537 (0x10001)
        X509v3 extensions:
            X509v3 Subject Key Identifier: 
                51:E9:60:43:B9:ED:67:C1:83:0B:B6:7B:78:66:DE:EE:A4:78:F1:40
            X509v3 Authority Key Identifier: 
                51:E9:60:43:B9:ED:67:C1:83:0B:B6:7B:78:66:DE:EE:A4:78:F1:40
            X509v3 Basic Constraints: critical
                CA:TRUE
    Signature Algorithm: sha256WithRSAEncryption
    Signature Value:
        66:d5:5b:72:d6:b9:27:b0:06:09:c8:dc:ed:93:e8:f7:8a:52:
        52:51:0d:5a:3b:cb:09:00:d2:6d:ba:76:92:0c:11:17:be:fb:
        be:18:d2:4a:ef:f7:3b:90:dc:b2:d9:16:89:96:84:06:91:b8:
        2e:f6:88:b8:8a:1b:07:8f:97:7a:c5:02:de:6d:cf:5b:b4:9c:
        14:1b:4c:d6:c1:b2:33:2b:4e:3f:97:ba:60:ee:45:22:0e:71:
        7a:42:f1:eb:6e:bd:04:1b:dd:ce:d1:2d:96:65:e2:da:5b:d6:
        ba:a9:7f:4d:bf:3c:a1:03:98:bc:b0:dd:f8:87:5b:70:6f:64:
        f1:cd:5c:77:38:b4:0d:c3:00:1e:32:46:05:16:20:ea:2a:ea:
        0f:d3:10:1b:8c:7d:be:f7:a6:19:4d:66:3c:ba:0f:f3:7b:71:
        2e:f1:94:38:3f:f9:7c:7e:14:ef:d8:2f:a5:6d:9e:7e:98:68:
        66:94:4c:77:6b:36:40:64:07:a9:c6:3d:90:76:0c:39:03:8b:
        89:13:87:c3:2c:4f:01:2b:79:47:81:4a:6b:66:7a:ff:5c:80:
        22:13:af:00:df:c0:84:a5:bd:c8:d3:6d:73:5c:8a:27:47:40:
        52:af:be:9a:bc:04:a4:92:ae:b9:18:c6:e0:4d:f2:24:6a:b9:
        dc:7f:3e:aa
-----BEGIN CERTIFICATE-----
MIIDCTCCAfGgAwIBAgIUSLj3VzgTdAcSB9FnRD8Tf40HhXEwDQYJKoZIhvcNAQEL
BQAwFDESMBAGA1UEAwwJbG9jYWxob3N0MB4XDTI2MDEyNjIxNTgyMloXDTI3MDEy
NjIxNTgyMlowFDESMBAGA1UEAwwJbG9jYWxob3N0MIIBIjANBgkqhkiG9w0BAQEF
AAOCAQ8AMIIBCgKCAQEApXG1j7Aq4DquP3avHPrN6o2hwHpAN18nhLxxYrZAXffh
Y5AZ5rZdLglRdrcN1wbODiHtWnVGixOnwZW/IeSIVIhOhiI/r7YbOzHqZNgyagbd
v2qu060M32ODDk5qTHY49ymFd+HCcnXCKEA5MZOgg0bZ+JX27Klknyrw/ikKMDQQ
ioaN92A46OxEQLDaIPz1vou3sLYWABdVTe/SB4sXfvF2TZ7DGjoGLSjIQ/dhu3vm
pXkJb73vIKfxN3rcWWqEMUX5bJ8NADpZQYS/J3ngJ5JQI46GXDhlTVhUCa0b8aT7
ulNYmwvIzR6wXsPZ/fxrU5O2HFG9YbUWZUI0QxyIRwIDAQABo1MwUTAdBgNVHQ4E
FgQUUelgQ7ntZ8GDC7Z7eGbe7qR48UAwHwYDVR0jBBgwFoAUUelgQ7ntZ8GDC7Z7
eGbe7qR48UAwDwYDVR0TAQH/BAUwAwEB/zANBgkqhkiG9w0BAQsFAAOCAQEAZtVb
cta5J7AGCcjc7ZPo94pSUlENWjvLCQDSbbp2kgwRF777vhjSSu/3O5DcstkWiZaE
BpG4LvaIuIobB4+XesUC3m3PW7ScFBtM1sGyMytOP5e6YO5FIg5xekLx6269BBvd
ztEtlmXi2lvWuql/Tb88oQOYvLDd+IdbcG9k8c1cdzi0DcMAHjJGBRYg6irqD9MQ
G4x9vvemGU1mPLoP83txLvGUOD/5fH4U79gvpW2efphoZpRMd2s2QGQHqcY9kHYM
OQOLiROHwyxPASt5R4FKa2Z6/1yAIhOvAN/AhKW9yNNtc1yKJ0dAUq++mrwEpJKu
uRjG4E3yJGq53H8+qg==
-----END CERTIFICATE-----
